
 Start  Stop   Length Name               Class

 00000H 029ACH 029ADH _TEXT              CODE
 029ADH 030DDH 00731H FIXHELP_TEXT       CODE
 030DEH 0337DH 002A0H DECOMP_TEXT        CODE
 03380H 03380H 00000H _FARDATA           FAR_DATA
 03380H 03380H 00000H _FARBSS            FAR_BSS
 03380H 03380H 00000H _OVERLAY_          OVRINFO
 03380H 03380H 00000H _1STUB_            STUBSEG
 03380H 0375DH 003DEH _DATA              DATA
 0375EH 0375FH 00002H _CVTSEG            DATA
 03760H 03765H 00006H _SCNSEG            DATA
 03766H 03766H 00000H _CONST             CONST
 03766H 03771H 0000CH _INIT_             INITDATA
 03772H 03772H 00000H _INITEND_          INITDATA
 03772H 03772H 00000H _EXIT_             EXITDATA
 03772H 03772H 00000H _EXITEND_          EXITDATA
 03772H 038C5H 00154H _BSS               BSS
 038C6H 038C6H 00000H _BSSEND            BSSEND
 038D0H 0394FH 00080H _STACK             STACK

  Address         Publics by Name

 0338:0000       DATASEG@
 0000:0291       DGROUP@
 0000:0395       F_LXLSH@
 0000:03B6       F_PADD@
 0000:03E5       F_PSUB@
 0000:0395       LXLSH@
 0000:0392       N_LXLSH@
 0000:05F0       N_LXMUL@
 0000:03B3       N_PADD@
 0000:0607       N_PCMP@
 0000:03E2       N_PSUB@
 0000:03B6       PADD@
 0000:03E5       PSUB@
 0000:027A       _ABORT
 0000:0295       _ATEXIT
 029A:0694       _BUILDFILENAME
 0000:0C64       _CALLOC
 0000:13E3       _CLOSE
 0000:1429       _EOF
 0338:007F       _ERRNO
 0000:0357       _EXIT
 0000:0E20       _FARFREE
 0000:0F34       _FARMALLOC
 0000:1098       _FARREALLOC
 0000:14A0       _FCLOSE
 0000:1558       _FFLUSH
 0000:1D4C       _FGETC
 0000:1E3A       _FGETCHAR
 029A:00B7       _FINDHELP
 0000:1625       _FLUSHALL
 0000:183E       _FOPEN
 0000:1873       _FPRINTF
 0000:20B4       _FPUTC
 0000:2249       _FPUTCHAR
 0000:1983       _FREAD
 0000:0E20       _FREE
 0000:1A93       _FSEEK
 0000:1B13       _FTELL
 0000:1BF3       _FWRITE
 030D:014A       _GETHELPLINE
 030D:0205       _HELPFILEPOSITION
 0338:04B0       _HELPTREE
 0000:1252       _IOCTL
 0000:045E       _ISATTY
 0000:0511       _LSEEK
 029A:012A       _MAIN
 0000:0F2A       _MALLOC
 0000:1E46       _MEMCPY
 0000:1E8E       _MEMSET
 0000:1EDA       _OPEN
 030D:000E       _OPENHELPFILE
 0000:1091       _REALLOC
 030D:023F       _SEEKHELPLINE
 0000:13AA       _SETBLOCK
 0000:1E6A       _SETMEM
 0000:2531       _SETVBUF
 0000:264E       _STRCAT
 0000:268D       _STRCHR
 0000:26CA       _STRCMP
 0000:26FA       _STRCPY
 0000:2723       _STRLEN
 0000:2742       _STRNCMP
 0000:277A       _STRNCPY
 0000:0711       _UNLINK
 0000:1000  Abs  __AHINCR
 0000:000C  Abs  __AHSHIFT
 0338:03C8       __ARGC
 0338:03CA       __ARGV
 0338:00F8       __ATEXITCNT
 0338:04B4       __ATEXITTBL
 0000:1188       __BRK
 0338:008B       __BRKLVL
 0338:006B       __C0ARGC
 0338:006D       __C0ARGV
 0338:0071       __C0ENVIRON
 0000:0378       __CEXIT
 0000:016A       __CHECKNULL
 0000:13C6       __CHMOD
 0000:0157       __CLEANUP
 0000:140B       __CLOSE
 0000:0000  Abs  __CVTFAK
 0000:0386       __C_EXIT
 0338:02C4       __DOSERRNO
 0000:044C       __DOSERROR
 0338:02C6       __DOSERRORTOSV
 0000:02C2       __DOS_GETFILEATTR
 0000:02E2       __DOS_SETFILEATTR
 0338:0075       __ENVLNG
 0338:0077       __ENVSEG
 0338:0079       __ENVSIZE
 0000:0366       __EXIT
 0338:00FA       __EXITBUF
 0338:00FE       __EXITFOPEN
 0338:0102       __EXITOPEN
 0000:1D34       __FGETC
 0338:02C0       __FMODE
 0000:2098       __FPUTC
 0000:225D       __FPUTN
 0000:17F4       __GETFP
 0338:0087       __HEAPBASE
 0338:008F       __HEAPTOP
 0338:005B       __INT0VECTOR
 0338:005F       __INT4VECTOR
 0338:0063       __INT5VECTOR
 0338:0067       __INT6VECTOR
 0000:0413       __IOERROR
 0000:046F       __LONGTOA
 0000:053A       __MKNAME
 0000:0293       __MMODEL
 0000:1D49       __NFGETC
 0338:0296       __NFILE
 0338:02C2       __NOTUMASK
 0000:2049       __OPEN
 0338:0298       __OPENFD
 0000:1723       __OPENFP
 0338:007D       __OSMAJOR
 0338:007E       __OSMINOR
 0338:007D       __OSVERSION
 0338:007B       __PSP
 0000:0628       __READ
 0000:127B       __REALCVT
 0338:03DE       __REALCVTVECTOR
 0000:01C0       __RESTOREZERO
 0000:11C7       __SBRK
 0338:03E0       __SCANTODVECTOR
 0000:0000  Abs  __SETARGV__
 0000:0657       __SETUPIO
 0338:0081       __STARTTIME
 0338:032A       __STKLEN
 0000:0C04       __STPCPY
 0338:0106       __STREAMS
 0000:016B       __TERMINATE
 0000:0597       __TMPNAM
 0000:04F1       __UTOA
 0338:007D       __VERSION
 0000:0741       __VPRINTER
 0000:28FC       __WRITE
 0000:2938       __XFCLOSE
 0000:2975       __XFFLUSH
 0000:0C38       ___ASSERTFAIL
 0338:0085       ___BRKLVL
 0000:0CE0       ___FIRST
 0000:0CE2       ___LAST
 0000:2460       ___READ
 0000:0CE4       ___ROVER
 0000:27AB       ___WRITE

  Address         Publics by Value

 0000:0000  Abs  __SETARGV__
 0000:0000  Abs  __CVTFAK
 0000:000C  Abs  __AHSHIFT
 0000:0157       __CLEANUP
 0000:016A       __CHECKNULL
 0000:016B       __TERMINATE
 0000:01C0       __RESTOREZERO
 0000:027A       _ABORT
 0000:0291       DGROUP@
 0000:0293       __MMODEL
 0000:0295       _ATEXIT
 0000:02C2       __DOS_GETFILEATTR
 0000:02E2       __DOS_SETFILEATTR
 0000:0357       _EXIT
 0000:0366       __EXIT
 0000:0378       __CEXIT
 0000:0386       __C_EXIT
 0000:0392       N_LXLSH@
 0000:0395       LXLSH@
 0000:0395       F_LXLSH@
 0000:03B3       N_PADD@
 0000:03B6       F_PADD@
 0000:03B6       PADD@
 0000:03E2       N_PSUB@
 0000:03E5       F_PSUB@
 0000:03E5       PSUB@
 0000:0413       __IOERROR
 0000:044C       __DOSERROR
 0000:045E       _ISATTY
 0000:046F       __LONGTOA
 0000:04F1       __UTOA
 0000:0511       _LSEEK
 0000:053A       __MKNAME
 0000:0597       __TMPNAM
 0000:05F0       N_LXMUL@
 0000:0607       N_PCMP@
 0000:0628       __READ
 0000:0657       __SETUPIO
 0000:0711       _UNLINK
 0000:0741       __VPRINTER
 0000:0C04       __STPCPY
 0000:0C38       ___ASSERTFAIL
 0000:0C64       _CALLOC
 0000:0CE0       ___FIRST
 0000:0CE2       ___LAST
 0000:0CE4       ___ROVER
 0000:0E20       _FREE
 0000:0E20       _FARFREE
 0000:0F2A       _MALLOC
 0000:0F34       _FARMALLOC
 0000:1000  Abs  __AHINCR
 0000:1091       _REALLOC
 0000:1098       _FARREALLOC
 0000:1188       __BRK
 0000:11C7       __SBRK
 0000:1252       _IOCTL
 0000:127B       __REALCVT
 0000:13AA       _SETBLOCK
 0000:13C6       __CHMOD
 0000:13E3       _CLOSE
 0000:140B       __CLOSE
 0000:1429       _EOF
 0000:14A0       _FCLOSE
 0000:1558       _FFLUSH
 0000:1625       _FLUSHALL
 0000:1723       __OPENFP
 0000:17F4       __GETFP
 0000:183E       _FOPEN
 0000:1873       _FPRINTF
 0000:1983       _FREAD
 0000:1A93       _FSEEK
 0000:1B13       _FTELL
 0000:1BF3       _FWRITE
 0000:1D34       __FGETC
 0000:1D49       __NFGETC
 0000:1D4C       _FGETC
 0000:1E3A       _FGETCHAR
 0000:1E46       _MEMCPY
 0000:1E6A       _SETMEM
 0000:1E8E       _MEMSET
 0000:1EDA       _OPEN
 0000:2049       __OPEN
 0000:2098       __FPUTC
 0000:20B4       _FPUTC
 0000:2249       _FPUTCHAR
 0000:225D       __FPUTN
 0000:2460       ___READ
 0000:2531       _SETVBUF
 0000:264E       _STRCAT
 0000:268D       _STRCHR
 0000:26CA       _STRCMP
 0000:26FA       _STRCPY
 0000:2723       _STRLEN
 0000:2742       _STRNCMP
 0000:277A       _STRNCPY
 0000:27AB       ___WRITE
 0000:28FC       __WRITE
 0000:2938       __XFCLOSE
 0000:2975       __XFFLUSH
 029A:00B7       _FINDHELP
 029A:012A       _MAIN
 029A:0694       _BUILDFILENAME
 030D:000E       _OPENHELPFILE
 030D:014A       _GETHELPLINE
 030D:0205       _HELPFILEPOSITION
 030D:023F       _SEEKHELPLINE
 0338:0000       DATASEG@
 0338:005B       __INT0VECTOR
 0338:005F       __INT4VECTOR
 0338:0063       __INT5VECTOR
 0338:0067       __INT6VECTOR
 0338:006B       __C0ARGC
 0338:006D       __C0ARGV
 0338:0071       __C0ENVIRON
 0338:0075       __ENVLNG
 0338:0077       __ENVSEG
 0338:0079       __ENVSIZE
 0338:007B       __PSP
 0338:007D       __OSVERSION
 0338:007D       __OSMAJOR
 0338:007D       __VERSION
 0338:007E       __OSMINOR
 0338:007F       _ERRNO
 0338:0081       __STARTTIME
 0338:0085       ___BRKLVL
 0338:0087       __HEAPBASE
 0338:008B       __BRKLVL
 0338:008F       __HEAPTOP
 0338:00F8       __ATEXITCNT
 0338:00FA       __EXITBUF
 0338:00FE       __EXITFOPEN
 0338:0102       __EXITOPEN
 0338:0106       __STREAMS
 0338:0296       __NFILE
 0338:0298       __OPENFD
 0338:02C0       __FMODE
 0338:02C2       __NOTUMASK
 0338:02C4       __DOSERRNO
 0338:02C6       __DOSERRORTOSV
 0338:032A       __STKLEN
 0338:03C8       __ARGC
 0338:03CA       __ARGV
 0338:03DE       __REALCVTVECTOR
 0338:03E0       __SCANTODVECTOR
 0338:04B0       _HELPTREE
 0338:04B4       __ATEXITTBL

Program entry point at 0000:0000

