
 Start  Stop   Length Name               Class

 00000H 026FEH 026FFH _TEXT              CODE
 026FFH 02A68H 0036AH HUFFC_TEXT         CODE
 02A69H 02C3DH 001D5H HTREE_TEXT         CODE
 02C40H 02C40H 00000H _FARDATA           FAR_DATA
 02C40H 02C40H 00000H _FARBSS            FAR_BSS
 02C40H 02C40H 00000H _OVERLAY_          OVRINFO
 02C40H 02C40H 00000H _1STUB_            STUBSEG
 02C40H 03005H 003C6H _DATA              DATA
 03006H 03007H 00002H _CVTSEG            DATA
 03008H 0300DH 00006H _SCNSEG            DATA
 0300EH 0300EH 00000H _CONST             CONST
 0300EH 03019H 0000CH _INIT_             INITDATA
 0301AH 0301AH 00000H _INITEND_          INITDATA
 0301AH 0301AH 00000H _EXIT_             EXITDATA
 0301AH 0301AH 00000H _EXITEND_          EXITDATA
 0301AH 030B7H 0009EH _BSS               BSS
 030B8H 030B8H 00000H _BSSEND            BSSEND
 030C0H 0313FH 00080H _STACK             STACK

  Address         Publics by Name

 02C4:0000       DATASEG@
 0000:0291       DGROUP@
 0000:0395       F_LXLSH@
 0000:03B6       F_PADD@
 0000:03E5       F_PSUB@
 0000:0395       LXLSH@
 0000:0392       N_LXLSH@
 0000:05F0       N_LXMUL@
 0000:03B3       N_PADD@
 0000:0607       N_PCMP@
 0000:03E2       N_PSUB@
 0000:03B6       PADD@
 0000:03E5       PSUB@
 0000:027A       _ABORT
 0000:0295       _ATEXIT
 02A6:0009       _BUILDTREE
 0000:0C38       _CALLOC
 0000:13B7       _CLOSE
 0000:13FD       _EOF
 02C4:007F       _ERRNO
 0000:0357       _EXIT
 0000:0DF4       _FARFREE
 0000:0F08       _FARMALLOC
 0000:106C       _FARREALLOC
 0000:1474       _FCLOSE
 0000:152C       _FFLUSH
 0000:1B82       _FGETC
 0000:1C70       _FGETCHAR
 0000:15F9       _FLUSHALL
 0000:1812       _FOPEN
 0000:1F05       _FPUTC
 0000:209A       _FPUTCHAR
 0000:0DF4       _FREE
 0000:18C9       _FSEEK
 0000:1949       _FTELL
 0000:1A29       _FWRITE
 02C4:03E2       _HT
 0000:1226       _IOCTL
 0000:045E       _ISATTY
 0000:0511       _LSEEK
 026F:0059       _MAIN
 0000:0EFE       _MALLOC
 0000:1C7C       _MEMCPY
 0000:1CC4       _MEMSET
 0000:1D10       _OPEN
 0000:1ECE       _PRINTF
 0000:1065       _REALLOC
 02C4:03E0       _ROOT
 0000:137E       _SETBLOCK
 0000:1CA0       _SETMEM
 0000:2382       _SETVBUF
 0000:249F       _STRCAT
 0000:24DE       _STRLEN
 02C4:03DE       _TREECT
 0000:0711       _UNLINK
 0000:1000  Abs  __AHINCR
 0000:000C  Abs  __AHSHIFT
 02C4:03B0       __ARGC
 02C4:03B2       __ARGV
 02C4:00E0       __ATEXITCNT
 02C4:03E6       __ATEXITTBL
 0000:115C       __BRK
 02C4:008B       __BRKLVL
 02C4:006B       __C0ARGC
 02C4:006D       __C0ARGV
 02C4:0071       __C0ENVIRON
 0000:0378       __CEXIT
 0000:016A       __CHECKNULL
 0000:139A       __CHMOD
 0000:0157       __CLEANUP
 0000:13DF       __CLOSE
 0000:0000  Abs  __CVTFAK
 0000:0386       __C_EXIT
 02C4:02AC       __DOSERRNO
 0000:044C       __DOSERROR
 02C4:02AE       __DOSERRORTOSV
 0000:02C2       __DOS_GETFILEATTR
 0000:02E2       __DOS_SETFILEATTR
 02C4:0075       __ENVLNG
 02C4:0077       __ENVSEG
 02C4:0079       __ENVSIZE
 0000:0366       __EXIT
 02C4:00E2       __EXITBUF
 02C4:00E6       __EXITFOPEN
 02C4:00EA       __EXITOPEN
 0000:1B6A       __FGETC
 02C4:02A8       __FMODE
 0000:1EE9       __FPUTC
 0000:20AE       __FPUTN
 0000:17C8       __GETFP
 02C4:0087       __HEAPBASE
 02C4:008F       __HEAPTOP
 02C4:005B       __INT0VECTOR
 02C4:005F       __INT4VECTOR
 02C4:0063       __INT5VECTOR
 02C4:0067       __INT6VECTOR
 0000:0413       __IOERROR
 0000:046F       __LONGTOA
 0000:053A       __MKNAME
 0000:0293       __MMODEL
 0000:1B7F       __NFGETC
 02C4:027E       __NFILE
 02C4:02AA       __NOTUMASK
 0000:1E7F       __OPEN
 02C4:0280       __OPENFD
 0000:16F7       __OPENFP
 02C4:007D       __OSMAJOR
 02C4:007E       __OSMINOR
 02C4:007D       __OSVERSION
 02C4:007B       __PSP
 0000:0628       __READ
 0000:124F       __REALCVT
 02C4:03C6       __REALCVTVECTOR
 0000:01C0       __RESTOREZERO
 0000:119B       __SBRK
 02C4:03C8       __SCANTODVECTOR
 0000:0000  Abs  __SETARGV__
 0000:0657       __SETUPIO
 02C4:0081       __STARTTIME
 02C4:0312       __STKLEN
 0000:0C04       __STPCPY
 02C4:00EE       __STREAMS
 0000:016B       __TERMINATE
 0000:0597       __TMPNAM
 0000:04F1       __UTOA
 02C4:007D       __VERSION
 0000:0741       __VPRINTER
 0000:264E       __WRITE
 0000:268A       __XFCLOSE
 0000:26C7       __XFFLUSH
 02C4:0085       ___BRKLVL
 0000:0CB4       ___FIRST
 0000:0CB6       ___LAST
 0000:22B1       ___READ
 0000:0CB8       ___ROVER
 0000:24FD       ___WRITE

  Address         Publics by Value

 0000:0000  Abs  __SETARGV__
 0000:0000  Abs  __CVTFAK
 0000:000C  Abs  __AHSHIFT
 0000:0157       __CLEANUP
 0000:016A       __CHECKNULL
 0000:016B       __TERMINATE
 0000:01C0       __RESTOREZERO
 0000:027A       _ABORT
 0000:0291       DGROUP@
 0000:0293       __MMODEL
 0000:0295       _ATEXIT
 0000:02C2       __DOS_GETFILEATTR
 0000:02E2       __DOS_SETFILEATTR
 0000:0357       _EXIT
 0000:0366       __EXIT
 0000:0378       __CEXIT
 0000:0386       __C_EXIT
 0000:0392       N_LXLSH@
 0000:0395       LXLSH@
 0000:0395       F_LXLSH@
 0000:03B3       N_PADD@
 0000:03B6       F_PADD@
 0000:03B6       PADD@
 0000:03E2       N_PSUB@
 0000:03E5       F_PSUB@
 0000:03E5       PSUB@
 0000:0413       __IOERROR
 0000:044C       __DOSERROR
 0000:045E       _ISATTY
 0000:046F       __LONGTOA
 0000:04F1       __UTOA
 0000:0511       _LSEEK
 0000:053A       __MKNAME
 0000:0597       __TMPNAM
 0000:05F0       N_LXMUL@
 0000:0607       N_PCMP@
 0000:0628       __READ
 0000:0657       __SETUPIO
 0000:0711       _UNLINK
 0000:0741       __VPRINTER
 0000:0C04       __STPCPY
 0000:0C38       _CALLOC
 0000:0CB4       ___FIRST
 0000:0CB6       ___LAST
 0000:0CB8       ___ROVER
 0000:0DF4       _FREE
 0000:0DF4       _FARFREE
 0000:0EFE       _MALLOC
 0000:0F08       _FARMALLOC
 0000:1000  Abs  __AHINCR
 0000:1065       _REALLOC
 0000:106C       _FARREALLOC
 0000:115C       __BRK
 0000:119B       __SBRK
 0000:1226       _IOCTL
 0000:124F       __REALCVT
 0000:137E       _SETBLOCK
 0000:139A       __CHMOD
 0000:13B7       _CLOSE
 0000:13DF       __CLOSE
 0000:13FD       _EOF
 0000:1474       _FCLOSE
 0000:152C       _FFLUSH
 0000:15F9       _FLUSHALL
 0000:16F7       __OPENFP
 0000:17C8       __GETFP
 0000:1812       _FOPEN
 0000:18C9       _FSEEK
 0000:1949       _FTELL
 0000:1A29       _FWRITE
 0000:1B6A       __FGETC
 0000:1B7F       __NFGETC
 0000:1B82       _FGETC
 0000:1C70       _FGETCHAR
 0000:1C7C       _MEMCPY
 0000:1CA0       _SETMEM
 0000:1CC4       _MEMSET
 0000:1D10       _OPEN
 0000:1E7F       __OPEN
 0000:1ECE       _PRINTF
 0000:1EE9       __FPUTC
 0000:1F05       _FPUTC
 0000:209A       _FPUTCHAR
 0000:20AE       __FPUTN
 0000:22B1       ___READ
 0000:2382       _SETVBUF
 0000:249F       _STRCAT
 0000:24DE       _STRLEN
 0000:24FD       ___WRITE
 0000:264E       __WRITE
 0000:268A       __XFCLOSE
 0000:26C7       __XFFLUSH
 026F:0059       _MAIN
 02A6:0009       _BUILDTREE
 02C4:0000       DATASEG@
 02C4:005B       __INT0VECTOR
 02C4:005F       __INT4VECTOR
 02C4:0063       __INT5VECTOR
 02C4:0067       __INT6VECTOR
 02C4:006B       __C0ARGC
 02C4:006D       __C0ARGV
 02C4:0071       __C0ENVIRON
 02C4:0075       __ENVLNG
 02C4:0077       __ENVSEG
 02C4:0079       __ENVSIZE
 02C4:007B       __PSP
 02C4:007D       __OSVERSION
 02C4:007D       __OSMAJOR
 02C4:007D       __VERSION
 02C4:007E       __OSMINOR
 02C4:007F       _ERRNO
 02C4:0081       __STARTTIME
 02C4:0085       ___BRKLVL
 02C4:0087       __HEAPBASE
 02C4:008B       __BRKLVL
 02C4:008F       __HEAPTOP
 02C4:00E0       __ATEXITCNT
 02C4:00E2       __EXITBUF
 02C4:00E6       __EXITFOPEN
 02C4:00EA       __EXITOPEN
 02C4:00EE       __STREAMS
 02C4:027E       __NFILE
 02C4:0280       __OPENFD
 02C4:02A8       __FMODE
 02C4:02AA       __NOTUMASK
 02C4:02AC       __DOSERRNO
 02C4:02AE       __DOSERRORTOSV
 02C4:0312       __STKLEN
 02C4:03B0       __ARGC
 02C4:03B2       __ARGV
 02C4:03C6       __REALCVTVECTOR
 02C4:03C8       __SCANTODVECTOR
 02C4:03DE       _TREECT
 02C4:03E0       _ROOT
 02C4:03E2       _HT
 02C4:03E6       __ATEXITTBL

Program entry point at 0000:0000

